target datalayout = "e-m:e-p270:32:32-p271:32:32-p272:64:64-i64:64-i128:128-f80:128-n8:16:32:64-S128"
target triple = "x86_64-pc-linux-gnu"

%struct._zend_executor_globals = type { %struct._zval_struct, %struct._zval_struct, [32 x ptr], ptr, ptr, %struct._zend_array, %struct._zend_array, ptr, i32, i32, ptr, ptr, ptr, ptr, ptr, ptr, i64, ptr, ptr, i32, i32, i64, i32, i32, i32, i8, i8, %struct.zend_atomic_bool_s, %struct.zend_atomic_bool_s, ptr, i64, ptr, ptr, %struct._zend_array, %struct._zend_array, i32, i8, %struct._zval_struct, %struct._zval_struct, %struct._zend_stack, %struct._zend_stack, %struct._zend_stack, ptr, i32, i32, i64, ptr, ptr, ptr, %struct._zend_objects_store, ptr, ptr, ptr, [3 x %struct._zend_op], ptr, i8, i8, i64, i32, i32, ptr, [16 x %struct._HashTableIterator], ptr, %union._zend_function, %struct._zend_op, %struct._zend_array, i64, %struct.zend_get_gc_buffer, ptr, ptr, ptr, i64, i8, i32, ptr, ptr, i64, %struct._zend_call_stack, i64, i64, [6 x ptr] }
%struct.zend_atomic_bool_s = type { i8 }
%struct._zval_struct = type { %union._zend_value, %union.anon, %union.anon.2 }
%union._zend_value = type { i64 }
%union.anon = type { i32 }
%union.anon.2 = type { i32 }
%struct._zend_stack = type { i32, i32, i32, ptr }
%struct._zend_objects_store = type { ptr, i32, i32, i32 }
%struct._HashTableIterator = type { ptr, i32, i32 }
%union._zend_function = type { %struct._zend_op_array }
%struct._zend_op_array = type { i8, [3 x i8], i32, ptr, ptr, ptr, i32, i32, ptr, ptr, ptr, ptr, i32, i32, i32, i32, ptr, ptr, ptr, ptr, ptr, i32, i32, ptr, ptr, ptr, i32, i32, i32, i32, ptr, ptr, [6 x ptr] }
%struct._zend_op = type { ptr, %union._znode_op, %union._znode_op, %union._znode_op, i32, i32, i8, i8, i8, i8 }
%union._znode_op = type { i32 }
%struct._zend_array = type { %struct._zend_refcounted_h, %union.anon.4, i32, %union.anon.6, i32, i32, i32, i32, i64, ptr }
%struct._zend_refcounted_h = type { i32, %union.anon.3 }
%union.anon.3 = type { i32 }
%union.anon.4 = type { i32 }
%union.anon.6 = type { ptr }
%struct.zend_get_gc_buffer = type { ptr, ptr, ptr }
%struct._zend_call_stack = type { ptr, i64 }
%struct._zend_string = type { %struct._zend_refcounted_h, i64, i64, [1 x i8] }
%struct._dom_object = type { ptr, ptr, ptr, %struct._zend_object }
%struct._zend_object = type { %struct._zend_refcounted_h, i32, ptr, ptr, ptr, [1 x %struct._zval_struct] }
%struct._zend_execute_data = type { ptr, ptr, ptr, ptr, %struct._zval_struct, ptr, ptr, ptr, ptr }
%struct._zend_class_entry = type { i8, ptr, %union.anon.8, i32, i32, i32, i32, ptr, ptr, ptr, %struct._zend_array, %struct._zend_array, %struct._zend_array, ptr, ptr, ptr, ptr, ptr, ptr, ptr, ptr, ptr, ptr, ptr, ptr, ptr, ptr, ptr, ptr, ptr, ptr, ptr, %union.anon.9, ptr, ptr, ptr, ptr, i32, i32, %union.anon.10, ptr, ptr, ptr, ptr, i32, ptr, ptr, %union.anon.11 }
%union.anon.8 = type { ptr }
%union.anon.9 = type { ptr }
%union.anon.10 = type { ptr }
%union.anon.11 = type { %struct.anon.12 }
%struct.anon.12 = type { ptr, i32, i32 }
%struct._php_libxml_node_ptr = type { ptr, i32, ptr }

@executor_globals = external global %struct._zend_executor_globals, align 8
@.str.2 = private unnamed_addr constant [18 x i8] c"Couldn't fetch %s\00", align 1
@.str.3 = private unnamed_addr constant [2 x i8] c"s\00", align 1
@.str.21 = private unnamed_addr constant [32 x i8] c"must not contain any null bytes\00", align 1
@.str.23 = private unnamed_addr constant [18 x i8] c"must not be empty\00", align 1
@.str.44 = private unnamed_addr constant [28 x i8] c"Invalid RelaxNG file source\00", align 1
@.str.45 = private unnamed_addr constant [16 x i8] c"Invalid RelaxNG\00", align 1
@.str.46 = private unnamed_addr constant [35 x i8] c"Invalid RelaxNG Validation Context\00", align 1

; Function Attrs: nounwind uwtable
define internal ptr @php_dom_obj_from_obj(ptr noundef %0) #0 {
  %2 = alloca ptr, align 8
  store ptr %0, ptr %2, align 8
  %3 = load ptr, ptr %2, align 8
  %4 = getelementptr inbounds i8, ptr %3, i64 -24
  ret ptr %4
}

; Function Attrs: nounwind uwtable
define internal void @_dom_document_relaxNG_validate(ptr noundef %0, ptr noundef %1, i32 noundef %2) #0 {
  %4 = alloca ptr, align 8
  %5 = alloca i64, align 8
  %6 = alloca ptr, align 8
  %7 = alloca ptr, align 8
  %8 = alloca i32, align 4
  %9 = alloca ptr, align 8
  %10 = alloca ptr, align 8
  %11 = alloca ptr, align 8
  %12 = alloca ptr, align 8
  %13 = alloca ptr, align 8
  %14 = alloca i64, align 8
  %15 = alloca ptr, align 8
  %16 = alloca ptr, align 8
  %17 = alloca ptr, align 8
  %18 = alloca i32, align 4
  %19 = alloca [4097 x i8], align 16
  %20 = alloca i32, align 4
  %21 = alloca i32, align 4
  %22 = alloca i32, align 4
  %23 = alloca i32, align 4
  %24 = alloca i32, align 4
  %25 = alloca i32, align 4
  store ptr %0, ptr %6, align 8
  store ptr %1, ptr %7, align 8
  store i32 %2, ptr %8, align 4
  store ptr null, ptr %12, align 8
  store ptr null, ptr %13, align 8
  store i64 0, ptr %14, align 8
  %26 = load ptr, ptr %6, align 8
  %27 = getelementptr inbounds %struct._zend_execute_data, ptr %26, i32 0, i32 4
  store ptr %27, ptr %9, align 8
  %28 = load ptr, ptr %6, align 8
  %29 = getelementptr inbounds %struct._zend_execute_data, ptr %28, i32 0, i32 4
  %30 = getelementptr inbounds %struct._zval_struct, ptr %29, i32 0, i32 2
  %31 = load i32, ptr %30, align 4
  %32 = call i32 (i32, ptr, ...) @zend_parse_parameters(i32 noundef %31, ptr noundef @.str.3, ptr noundef %12, ptr noundef %14)
  %33 = icmp eq i32 %32, -1
  br i1 %33, label %34, label %39

34:                                               ; preds = %3
  br label %35

35:                                               ; preds = %34
  %36 = load ptr, ptr getelementptr inbounds (%struct._zend_executor_globals, ptr @executor_globals, i32 0, i32 50), align 8
  %37 = icmp ne ptr %36, null
  call void @llvm.assume(i1 %37)
  br label %189

38:                                               ; No predecessors!
  br label %39

39:                                               ; preds = %38, %3
  %40 = load i64, ptr %14, align 8
  %41 = icmp ne i64 %40, 0
  br i1 %41, label %47, label %42

42:                                               ; preds = %39
  call void (i32, ptr, ...) @zend_argument_value_error(i32 noundef 1, ptr noundef @.str.23)
  br label %43

43:                                               ; preds = %42
  %44 = load ptr, ptr getelementptr inbounds (%struct._zend_executor_globals, ptr @executor_globals, i32 0, i32 50), align 8
  %45 = icmp ne ptr %44, null
  call void @llvm.assume(i1 %45)
  br label %189

46:                                               ; No predecessors!
  br label %47

47:                                               ; preds = %46, %39
  %48 = load ptr, ptr %9, align 8
  %49 = getelementptr inbounds %struct._zval_struct, ptr %48, i32 0, i32 0
  %50 = load ptr, ptr %49, align 8
  %51 = call ptr @php_dom_obj_from_obj(ptr noundef %50)
  store ptr %51, ptr %11, align 8
  %52 = load ptr, ptr %11, align 8
  %53 = getelementptr inbounds %struct._dom_object, ptr %52, i32 0, i32 0
  %54 = load ptr, ptr %53, align 8
  %55 = icmp eq ptr %54, null
  %56 = xor i1 %55, true
  %57 = xor i1 %56, true
  %58 = zext i1 %57 to i32
  %59 = sext i32 %58 to i64
  %60 = icmp ne i64 %59, 0
  br i1 %60, label %61, label %74

61:                                               ; preds = %47
  %62 = load ptr, ptr %11, align 8
  %63 = getelementptr inbounds %struct._dom_object, ptr %62, i32 0, i32 3
  %64 = getelementptr inbounds %struct._zend_object, ptr %63, i32 0, i32 2
  %65 = load ptr, ptr %64, align 8
  %66 = getelementptr inbounds %struct._zend_class_entry, ptr %65, i32 0, i32 1
  %67 = load ptr, ptr %66, align 8
  %68 = getelementptr inbounds %struct._zend_string, ptr %67, i32 0, i32 3
  %69 = getelementptr inbounds [1 x i8], ptr %68, i64 0, i64 0
  call void (ptr, ptr, ...) @zend_throw_error(ptr noundef null, ptr noundef @.str.2, ptr noundef %69)
  br label %70

70:                                               ; preds = %61
  %71 = load ptr, ptr getelementptr inbounds (%struct._zend_executor_globals, ptr @executor_globals, i32 0, i32 50), align 8
  %72 = icmp ne ptr %71, null
  call void @llvm.assume(i1 %72)
  br label %189

73:                                               ; No predecessors!
  br label %74

74:                                               ; preds = %73, %47
  %75 = load ptr, ptr %11, align 8
  %76 = getelementptr inbounds %struct._dom_object, ptr %75, i32 0, i32 0
  %77 = load ptr, ptr %76, align 8
  %78 = getelementptr inbounds %struct._php_libxml_node_ptr, ptr %77, i32 0, i32 0
  %79 = load ptr, ptr %78, align 8
  store ptr %79, ptr %10, align 8
  %80 = load i32, ptr %8, align 4
  switch i32 %80, label %114 [
    i32 1, label %81
    i32 0, label %109
  ]

81:                                               ; preds = %74
  %82 = load ptr, ptr %12, align 8
  %83 = load i64, ptr %14, align 8
  store ptr %82, ptr %4, align 8
  store i64 %83, ptr %5, align 8
  %84 = load i64, ptr %5, align 8
  %85 = load ptr, ptr %4, align 8
  %86 = call i64 @strlen(ptr noundef %85) #8
  %87 = icmp ne i64 %84, %86
  br i1 %87, label %88, label %93

88:                                               ; preds = %81
  call void (i32, ptr, ...) @zend_argument_value_error(i32 noundef 1, ptr noundef @.str.21)
  br label %89

89:                                               ; preds = %88
  %90 = load ptr, ptr getelementptr inbounds (%struct._zend_executor_globals, ptr @executor_globals, i32 0, i32 50), align 8
  %91 = icmp ne ptr %90, null
  call void @llvm.assume(i1 %91)
  br label %189

92:                                               ; No predecessors!
  br label %93

93:                                               ; preds = %92, %81
  %94 = load ptr, ptr %12, align 8
  %95 = getelementptr inbounds [4097 x i8], ptr %19, i64 0, i64 0
  %96 = call ptr @_dom_get_valid_file_path(ptr noundef %94, ptr noundef %95, i32 noundef 4096)
  store ptr %96, ptr %13, align 8
  %97 = load ptr, ptr %13, align 8
  %98 = icmp ne ptr %97, null
  br i1 %98, label %106, label %99

99:                                               ; preds = %93
  call void (ptr, i32, ptr, ...) @php_error_docref(ptr noundef null, i32 noundef 2, ptr noundef @.str.44)
  br label %100

100:                                              ; preds = %99
  br label %101

101:                                              ; preds = %100
  %102 = load ptr, ptr %7, align 8
  %103 = getelementptr inbounds %struct._zval_struct, ptr %102, i32 0, i32 1
  store i32 2, ptr %103, align 8
  br label %104

104:                                              ; preds = %101
  br label %189

105:                                              ; No predecessors!
  br label %106

106:                                              ; preds = %105, %93
  %107 = load ptr, ptr %13, align 8
  %108 = call ptr @xmlRelaxNGNewParserCtxt(ptr noundef %107)
  store ptr %108, ptr %15, align 8
  br label %115

109:                                              ; preds = %74
  %110 = load ptr, ptr %12, align 8
  %111 = load i64, ptr %14, align 8
  %112 = trunc i64 %111 to i32
  %113 = call ptr @xmlRelaxNGNewMemParserCtxt(ptr noundef %110, i32 noundef %112)
  store ptr %113, ptr %15, align 8
  br label %115

114:                                              ; preds = %74
  br label %189

115:                                              ; preds = %109, %106
  %116 = call ptr @__xmlLoadExtDtdDefaultValue()
  %117 = load i32, ptr %116, align 4
  store i32 %117, ptr %20, align 4
  %118 = call ptr @__xmlLoadExtDtdDefaultValue()
  store i32 0, ptr %118, align 4
  %119 = call ptr @__xmlDoValidityCheckingDefaultValue()
  %120 = load i32, ptr %119, align 4
  store i32 %120, ptr %21, align 4
  %121 = call ptr @__xmlDoValidityCheckingDefaultValue()
  store i32 0, ptr %121, align 4
  %122 = call i32 @xmlPedanticParserDefault(i32 noundef 0)
  store i32 %122, ptr %22, align 4
  %123 = call i32 @xmlSubstituteEntitiesDefault(i32 noundef 0)
  store i32 %123, ptr %23, align 4
  %124 = call i32 @xmlLineNumbersDefault(i32 noundef 0)
  store i32 %124, ptr %24, align 4
  %125 = call i32 @xmlKeepBlanksDefault(i32 noundef 1)
  store i32 %125, ptr %25, align 4
  %126 = load ptr, ptr %15, align 8
  %127 = load ptr, ptr %15, align 8
  call void @xmlRelaxNGSetParserErrors(ptr noundef %126, ptr noundef @php_libxml_error_handler, ptr noundef @php_libxml_error_handler, ptr noundef %127)
  %128 = load ptr, ptr %15, align 8
  %129 = call ptr @xmlRelaxNGParse(ptr noundef %128)
  store ptr %129, ptr %16, align 8
  %130 = load ptr, ptr %15, align 8
  call void @xmlRelaxNGFreeParserCtxt(ptr noundef %130)
  %131 = load i32, ptr %20, align 4
  %132 = call ptr @__xmlLoadExtDtdDefaultValue()
  store i32 %131, ptr %132, align 4
  %133 = load i32, ptr %21, align 4
  %134 = call ptr @__xmlDoValidityCheckingDefaultValue()
  store i32 %133, ptr %134, align 4
  %135 = load i32, ptr %22, align 4
  %136 = call i32 @xmlPedanticParserDefault(i32 noundef %135)
  %137 = load i32, ptr %23, align 4
  %138 = call i32 @xmlSubstituteEntitiesDefault(i32 noundef %137)
  %139 = load i32, ptr %24, align 4
  %140 = call i32 @xmlLineNumbersDefault(i32 noundef %139)
  %141 = load i32, ptr %25, align 4
  %142 = call i32 @xmlKeepBlanksDefault(i32 noundef %141)
  %143 = load ptr, ptr %16, align 8
  %144 = icmp ne ptr %143, null
  br i1 %144, label %152, label %145

145:                                              ; preds = %115
  call void (ptr, i32, ptr, ...) @php_error_docref(ptr noundef null, i32 noundef 2, ptr noundef @.str.45)
  br label %146

146:                                              ; preds = %145
  br label %147

147:                                              ; preds = %146
  %148 = load ptr, ptr %7, align 8
  %149 = getelementptr inbounds %struct._zval_struct, ptr %148, i32 0, i32 1
  store i32 2, ptr %149, align 8
  br label %150

150:                                              ; preds = %147
  br label %189

151:                                              ; No predecessors!
  br label %152

152:                                              ; preds = %151, %115
  %153 = load ptr, ptr %11, align 8
  %154 = call ptr @dom_object_get_node(ptr noundef %153)
  store ptr %154, ptr %10, align 8
  %155 = load ptr, ptr %16, align 8
  %156 = call ptr @xmlRelaxNGNewValidCtxt(ptr noundef %155)
  store ptr %156, ptr %17, align 8
  %157 = load ptr, ptr %17, align 8
  %158 = icmp ne ptr %157, null
  br i1 %158, label %165, label %159

159:                                              ; preds = %152
  %160 = load ptr, ptr %16, align 8
  call void @xmlRelaxNGFree(ptr noundef %160)
  call void (ptr, ptr, ...) @zend_throw_error(ptr noundef null, ptr noundef @.str.46)
  br label %161

161:                                              ; preds = %159
  %162 = load ptr, ptr getelementptr inbounds (%struct._zend_executor_globals, ptr @executor_globals, i32 0, i32 50), align 8
  %163 = icmp ne ptr %162, null
  call void @llvm.assume(i1 %163)
  br label %189

164:                                              ; No predecessors!
  br label %165

165:                                              ; preds = %164, %152
  %166 = load ptr, ptr %17, align 8
  %167 = load ptr, ptr %17, align 8
  call void @xmlRelaxNGSetValidErrors(ptr noundef %166, ptr noundef @php_libxml_error_handler, ptr noundef @php_libxml_error_handler, ptr noundef %167)
  %168 = load ptr, ptr %17, align 8
  %169 = load ptr, ptr %10, align 8
  %170 = call i32 @xmlRelaxNGValidateDoc(ptr noundef %168, ptr noundef %169)
  store i32 %170, ptr %18, align 4
  %171 = load ptr, ptr %16, align 8
  call void @xmlRelaxNGFree(ptr noundef %171)
  %172 = load ptr, ptr %17, align 8
  call void @xmlRelaxNGFreeValidCtxt(ptr noundef %172)
  %173 = load i32, ptr %18, align 4
  %174 = icmp eq i32 %173, 0
  br i1 %174, label %175, label %182

175:                                              ; preds = %165
  br label %176

176:                                              ; preds = %175
  br label %177

177:                                              ; preds = %176
  %178 = load ptr, ptr %7, align 8
  %179 = getelementptr inbounds %struct._zval_struct, ptr %178, i32 0, i32 1
  store i32 3, ptr %179, align 8
  br label %180

180:                                              ; preds = %177
  br label %189

181:                                              ; No predecessors!
  br label %189

182:                                              ; preds = %165
  br label %183

183:                                              ; preds = %182
  br label %184

184:                                              ; preds = %183
  %185 = load ptr, ptr %7, align 8
  %186 = getelementptr inbounds %struct._zval_struct, ptr %185, i32 0, i32 1
  store i32 2, ptr %186, align 8
  br label %187

187:                                              ; preds = %184
  br label %189

188:                                              ; No predecessors!
  br label %189

189:                                              ; preds = %188, %187, %181, %180, %161, %150, %114, %104, %89, %70, %43, %35
  ret void
}