; Function Attrs: nounwind uwtable
define internal fastcc void @_dom_document_relaxNG_validate(ptr nocapture noundef readonly %0, ptr nocapture noundef writeonly %1, i32 noundef %2) unnamed_addr #0 {
  %4 = alloca ptr, align 8
  %5 = alloca i64, align 8
  %6 = alloca [4097 x i8], align 16
  store ptr null, ptr %4, align 8
  store i64 0, ptr %5, align 8
  %7 = getelementptr inbounds i8, ptr %0, i64 32
  %8 = getelementptr inbounds i8, ptr %0, i64 44
  %9 = load i32, ptr %8, align 4
  %10 = call i32 (i32, ptr, ...) @zend_parse_parameters(i32 noundef %9, ptr noundef nonnull @.str.3, ptr noundef nonnull %4, ptr noundef nonnull %5) #10
  %11 = icmp eq i32 %10, -1
  br i1 %11, label %12, label %15

12:                                               ; preds = %3
  %13 = load ptr, ptr getelementptr inbounds (%struct._zend_executor_globals, ptr @executor_globals, i64 0, i32 50), align 8
  %14 = icmp ne ptr %13, null
  call void @llvm.assume(i1 %14)
  br label %81

15:                                               ; preds = %3
  %16 = load i64, ptr %5, align 8
  %.not = icmp eq i64 %16, 0
  br i1 %.not, label %17, label %20

17:                                               ; preds = %15
  call void (i32, ptr, ...) @zend_argument_value_error(i32 noundef 1, ptr noundef nonnull @.str.23) #10
  %18 = load ptr, ptr getelementptr inbounds (%struct._zend_executor_globals, ptr @executor_globals, i64 0, i32 50), align 8
  %19 = icmp ne ptr %18, null
  call void @llvm.assume(i1 %19)
  br label %81

20:                                               ; preds = %15
  %21 = load ptr, ptr %7, align 8
  %22 = getelementptr inbounds i8, ptr %21, i64 -24
  %23 = load ptr, ptr %22, align 8
  %24 = icmp eq ptr %23, null
  br i1 %24, label %25, label %33

25:                                               ; preds = %20
  %26 = getelementptr inbounds i8, ptr %21, i64 16
  %27 = load ptr, ptr %26, align 8
  %28 = getelementptr inbounds i8, ptr %27, i64 8
  %29 = load ptr, ptr %28, align 8
  %30 = getelementptr inbounds i8, ptr %29, i64 24
  call void (ptr, ptr, ...) @zend_throw_error(ptr noundef null, ptr noundef nonnull @.str.2, ptr noundef nonnull %30) #10
  %31 = load ptr, ptr getelementptr inbounds (%struct._zend_executor_globals, ptr @executor_globals, i64 0, i32 50), align 8
  %32 = icmp ne ptr %31, null
  call void @llvm.assume(i1 %32)
  br label %81

33:                                               ; preds = %20
  %switch = icmp eq i32 %2, 1
  %34 = load ptr, ptr %4, align 8
  br i1 %switch, label %35, label %46

35:                                               ; preds = %33
  %36 = call i64 @strlen(ptr noundef nonnull dereferenceable(1) %34) #11
  %.not39 = icmp eq i64 %16, %36
  br i1 %.not39, label %40, label %37

37:                                               ; preds = %35
  call void (i32, ptr, ...) @zend_argument_value_error(i32 noundef 1, ptr noundef nonnull @.str.21) #10
  %38 = load ptr, ptr getelementptr inbounds (%struct._zend_executor_globals, ptr @executor_globals, i64 0, i32 50), align 8
  %39 = icmp ne ptr %38, null
  call void @llvm.assume(i1 %39)
  br label %81

40:                                               ; preds = %35
  %41 = call ptr @_dom_get_valid_file_path(ptr noundef %34, ptr noundef nonnull %6, i32 poison)
  %.not40 = icmp eq ptr %41, null
  br i1 %.not40, label %42, label %44

42:                                               ; preds = %40
  call void (ptr, i32, ptr, ...) @php_error_docref(ptr noundef null, i32 noundef 2, ptr noundef nonnull @.str.44) #10
  %43 = getelementptr inbounds i8, ptr %1, i64 8
  store i32 2, ptr %43, align 8
  br label %81

44:                                               ; preds = %40
  %45 = call ptr @xmlRelaxNGNewParserCtxt(ptr noundef nonnull %41) #10
  br label %49

46:                                               ; preds = %33
  %47 = trunc i64 %16 to i32
  %48 = call ptr @xmlRelaxNGNewMemParserCtxt(ptr noundef %34, i32 noundef %47) #10
  br label %49

49:                                               ; preds = %46, %44
  %.0 = phi ptr [ %48, %46 ], [ %45, %44 ]
  %50 = call ptr @__xmlLoadExtDtdDefaultValue() #10
  %51 = load i32, ptr %50, align 4
  %52 = call ptr @__xmlLoadExtDtdDefaultValue() #10
  store i32 0, ptr %52, align 4
  %53 = call ptr @__xmlDoValidityCheckingDefaultValue() #10
  %54 = load i32, ptr %53, align 4
  %55 = call ptr @__xmlDoValidityCheckingDefaultValue() #10
  store i32 0, ptr %55, align 4
  %56 = call i32 @xmlPedanticParserDefault(i32 noundef 0) #10
  %57 = call i32 @xmlSubstituteEntitiesDefault(i32 noundef 0) #10
  %58 = call i32 @xmlLineNumbersDefault(i32 noundef 0) #10
  %59 = call i32 @xmlKeepBlanksDefault(i32 noundef 1) #10
  call void @xmlRelaxNGSetParserErrors(ptr noundef %.0, ptr noundef nonnull @php_libxml_error_handler, ptr noundef nonnull @php_libxml_error_handler, ptr noundef %.0) #10
  %60 = call ptr @xmlRelaxNGParse(ptr noundef %.0) #10
  call void @xmlRelaxNGFreeParserCtxt(ptr noundef %.0) #10
  %61 = call ptr @__xmlLoadExtDtdDefaultValue() #10
  store i32 %51, ptr %61, align 4
  %62 = call ptr @__xmlDoValidityCheckingDefaultValue() #10
  store i32 %54, ptr %62, align 4
  %63 = call i32 @xmlPedanticParserDefault(i32 noundef %56) #10
  %64 = call i32 @xmlSubstituteEntitiesDefault(i32 noundef %57) #10
  %65 = call i32 @xmlLineNumbersDefault(i32 noundef %58) #10
  %66 = call i32 @xmlKeepBlanksDefault(i32 noundef %59) #10
  %.not41 = icmp eq ptr %60, null
  br i1 %.not41, label %67, label %69

67:                                               ; preds = %49
  call void (ptr, i32, ptr, ...) @php_error_docref(ptr noundef null, i32 noundef 2, ptr noundef nonnull @.str.45) #10
  %68 = getelementptr inbounds i8, ptr %1, i64 8
  store i32 2, ptr %68, align 8
  br label %81

69:                                               ; preds = %49
  %70 = call ptr @dom_object_get_node(ptr noundef nonnull %22) #10
  %71 = call ptr @xmlRelaxNGNewValidCtxt(ptr noundef nonnull %60) #10
  %.not42 = icmp eq ptr %71, null
  br i1 %.not42, label %72, label %75

72:                                               ; preds = %69
  call void @xmlRelaxNGFree(ptr noundef nonnull %60) #10
  call void (ptr, ptr, ...) @zend_throw_error(ptr noundef null, ptr noundef nonnull @.str.46) #10
  %73 = load ptr, ptr getelementptr inbounds (%struct._zend_executor_globals, ptr @executor_globals, i64 0, i32 50), align 8
  %74 = icmp ne ptr %73, null
  call void @llvm.assume(i1 %74)
  br label %81

75:                                               ; preds = %69
  call void @xmlRelaxNGSetValidErrors(ptr noundef nonnull %71, ptr noundef nonnull @php_libxml_error_handler, ptr noundef nonnull @php_libxml_error_handler, ptr noundef nonnull %71) #10
  %76 = call i32 @xmlRelaxNGValidateDoc(ptr noundef nonnull %71, ptr noundef %70) #10
  call void @xmlRelaxNGFree(ptr noundef nonnull %60) #10
  call void @xmlRelaxNGFreeValidCtxt(ptr noundef nonnull %71) #10
  %77 = icmp eq i32 %76, 0
  %78 = getelementptr inbounds i8, ptr %1, i64 8
  br i1 %77, label %79, label %80

79:                                               ; preds = %75
  store i32 3, ptr %78, align 8
  br label %81

80:                                               ; preds = %75
  store i32 2, ptr %78, align 8
  br label %81

81:                                               ; preds = %80, %79, %72, %67, %42, %37, %25, %17, %12
  ret void
}